target datalayout = "e-m:e-p270:32:32-p271:32:32-p272:64:64-i64:64-i128:128-f80:128-n8:16:32:64-S128"
target triple = "x86_64-pc-linux-gnu"

%struct.expert_field = type { i32, i32 }

@hf_pn_io_vendor_id_high = internal global i32 0, align 4
@hf_pn_io_vendor_id_low = internal global i32 0, align 4
@hf_pn_io_order_id = internal global i32 0, align 4
@hf_pn_io_im_serial_number = internal global i32 0, align 4
@hf_pn_io_im_hardware_revision = internal global i32 0, align 4
@hf_pn_io_im_revision_prefix = internal global i32 0, align 4
@hf_pn_io_im_sw_revision_functional_enhancement = internal global i32 0, align 4
@hf_pn_io_im_revision_bugfix = internal global i32 0, align 4
@hf_pn_io_im_sw_revision_internal_change = internal global i32 0, align 4
@hf_pn_io_im_revision_counter = internal global i32 0, align 4
@hf_pn_io_im_profile_id = internal global i32 0, align 4
@hf_pn_io_im_profile_specific_type = internal global i32 0, align 4
@hf_pn_io_im_version_major = internal global i32 0, align 4
@hf_pn_io_im_version_minor = internal global i32 0, align 4
@hf_pn_io_im_supported = internal global i32 0, align 4
@ei_pn_io_block_version = internal global %struct.expert_field zeroinitializer, align 4
@.str.1317 = private unnamed_addr constant [41 x i8] c"Block version %u.%u not implemented yet!\00", align 1

; Function Attrs: nounwind uwtable
define internal i32 @dissect_IandM0_block(ptr noundef %0, i32 noundef %1, ptr noundef %2, ptr noundef %3, ptr noundef %4, ptr noundef %5, i8 noundef zeroext %6, i8 noundef zeroext %7) #0 {
  %9 = alloca i32, align 4
  %10 = alloca ptr, align 8
  %11 = alloca i32, align 4
  %12 = alloca ptr, align 8
  %13 = alloca ptr, align 8
  %14 = alloca ptr, align 8
  %15 = alloca ptr, align 8
  %16 = alloca i8, align 1
  %17 = alloca i8, align 1
  %18 = alloca i8, align 1
  %19 = alloca i8, align 1
  %20 = alloca i16, align 2
  %21 = alloca i8, align 1
  %22 = alloca i8, align 1
  %23 = alloca i8, align 1
  %24 = alloca i8, align 1
  %25 = alloca i16, align 2
  %26 = alloca i16, align 2
  %27 = alloca i16, align 2
  %28 = alloca i8, align 1
  %29 = alloca i8, align 1
  %30 = alloca i16, align 2
  store ptr %0, ptr %10, align 8
  store i32 %1, ptr %11, align 4
  store ptr %2, ptr %12, align 8
  store ptr %3, ptr %13, align 8
  store ptr %4, ptr %14, align 8
  store ptr %5, ptr %15, align 8
  store i8 %6, ptr %16, align 1
  store i8 %7, ptr %17, align 1
  %31 = load i8, ptr %16, align 1
  %32 = zext i8 %31 to i32
  %33 = icmp ne i32 %32, 1
  br i1 %33, label %38, label %34

34:                                               ; preds = %8
  %35 = load i8, ptr %17, align 1
  %36 = zext i8 %35 to i32
  %37 = icmp ne i32 %36, 0
  br i1 %37, label %38, label %47

38:                                               ; preds = %34, %8
  %39 = load ptr, ptr %12, align 8
  %40 = load ptr, ptr %14, align 8
  %41 = load i8, ptr %16, align 1
  %42 = zext i8 %41 to i32
  %43 = load i8, ptr %17, align 1
  %44 = zext i8 %43 to i32
  %45 = call ptr (ptr, ptr, ptr, ptr, ...) @expert_add_info_format(ptr noundef %39, ptr noundef %40, ptr noundef @ei_pn_io_block_version, ptr noundef @.str.1317, i32 noundef %42, i32 noundef %44)
  %46 = load i32, ptr %11, align 4
  store i32 %46, ptr %9, align 4
  br label %154

47:                                               ; preds = %34
  %48 = load ptr, ptr %10, align 8
  %49 = load i32, ptr %11, align 4
  %50 = load ptr, ptr %12, align 8
  %51 = load ptr, ptr %13, align 8
  %52 = load ptr, ptr %15, align 8
  %53 = load i32, ptr @hf_pn_io_vendor_id_high, align 4
  %54 = call i32 @dissect_dcerpc_uint8(ptr noundef %48, i32 noundef %49, ptr noundef %50, ptr noundef %51, ptr noundef %52, i32 noundef %53, ptr noundef %18)
  store i32 %54, ptr %11, align 4
  %55 = load ptr, ptr %10, align 8
  %56 = load i32, ptr %11, align 4
  %57 = load ptr, ptr %12, align 8
  %58 = load ptr, ptr %13, align 8
  %59 = load ptr, ptr %15, align 8
  %60 = load i32, ptr @hf_pn_io_vendor_id_low, align 4
  %61 = call i32 @dissect_dcerpc_uint8(ptr noundef %55, i32 noundef %56, ptr noundef %57, ptr noundef %58, ptr noundef %59, i32 noundef %60, ptr noundef %19)
  store i32 %61, ptr %11, align 4
  %62 = load ptr, ptr %13, align 8
  %63 = load i32, ptr @hf_pn_io_order_id, align 4
  %64 = load ptr, ptr %10, align 8
  %65 = load i32, ptr %11, align 4
  %66 = call ptr @proto_tree_add_item(ptr noundef %62, i32 noundef %63, ptr noundef %64, i32 noundef %65, i32 noundef 20, i32 noundef 0)
  %67 = load i32, ptr %11, align 4
  %68 = add i32 %67, 20
  store i32 %68, ptr %11, align 4
  %69 = load ptr, ptr %13, align 8
  %70 = load i32, ptr @hf_pn_io_im_serial_number, align 4
  %71 = load ptr, ptr %10, align 8
  %72 = load i32, ptr %11, align 4
  %73 = call ptr @proto_tree_add_item(ptr noundef %69, i32 noundef %70, ptr noundef %71, i32 noundef %72, i32 noundef 16, i32 noundef 0)
  %74 = load i32, ptr %11, align 4
  %75 = add i32 %74, 16
  store i32 %75, ptr %11, align 4
  %76 = load ptr, ptr %10, align 8
  %77 = load i32, ptr %11, align 4
  %78 = load ptr, ptr %12, align 8
  %79 = load ptr, ptr %13, align 8
  %80 = load ptr, ptr %15, align 8
  %81 = load i32, ptr @hf_pn_io_im_hardware_revision, align 4
  %82 = call i32 @dissect_dcerpc_uint16(ptr noundef %76, i32 noundef %77, ptr noundef %78, ptr noundef %79, ptr noundef %80, i32 noundef %81, ptr noundef %20)
  store i32 %82, ptr %11, align 4
  %83 = load ptr, ptr %10, align 8
  %84 = load i32, ptr %11, align 4
  %85 = load ptr, ptr %12, align 8
  %86 = load ptr, ptr %13, align 8
  %87 = load ptr, ptr %15, align 8
  %88 = load i32, ptr @hf_pn_io_im_revision_prefix, align 4
  %89 = call i32 @dissect_dcerpc_char(ptr noundef %83, i32 noundef %84, ptr noundef %85, ptr noundef %86, ptr noundef %87, i32 noundef %88, ptr noundef %21)
  store i32 %89, ptr %11, align 4
  %90 = load ptr, ptr %10, align 8
  %91 = load i32, ptr %11, align 4
  %92 = load ptr, ptr %12, align 8
  %93 = load ptr, ptr %13, align 8
  %94 = load ptr, ptr %15, align 8
  %95 = load i32, ptr @hf_pn_io_im_sw_revision_functional_enhancement, align 4
  %96 = call i32 @dissect_dcerpc_uint8(ptr noundef %90, i32 noundef %91, ptr noundef %92, ptr noundef %93, ptr noundef %94, i32 noundef %95, ptr noundef %22)
  store i32 %96, ptr %11, align 4
  %97 = load ptr, ptr %10, align 8
  %98 = load i32, ptr %11, align 4
  %99 = load ptr, ptr %12, align 8
  %100 = load ptr, ptr %13, align 8
  %101 = load ptr, ptr %15, align 8
  %102 = load i32, ptr @hf_pn_io_im_revision_bugfix, align 4
  %103 = call i32 @dissect_dcerpc_uint8(ptr noundef %97, i32 noundef %98, ptr noundef %99, ptr noundef %100, ptr noundef %101, i32 noundef %102, ptr noundef %23)
  store i32 %103, ptr %11, align 4
  %104 = load ptr, ptr %10, align 8
  %105 = load i32, ptr %11, align 4
  %106 = load ptr, ptr %12, align 8
  %107 = load ptr, ptr %13, align 8
  %108 = load ptr, ptr %15, align 8
  %109 = load i32, ptr @hf_pn_io_im_sw_revision_internal_change, align 4
  %110 = call i32 @dissect_dcerpc_uint8(ptr noundef %104, i32 noundef %105, ptr noundef %106, ptr noundef %107, ptr noundef %108, i32 noundef %109, ptr noundef %24)
  store i32 %110, ptr %11, align 4
  %111 = load ptr, ptr %10, align 8
  %112 = load i32, ptr %11, align 4
  %113 = load ptr, ptr %12, align 8
  %114 = load ptr, ptr %13, align 8
  %115 = load ptr, ptr %15, align 8
  %116 = load i32, ptr @hf_pn_io_im_revision_counter, align 4
  %117 = call i32 @dissect_dcerpc_uint16(ptr noundef %111, i32 noundef %112, ptr noundef %113, ptr noundef %114, ptr noundef %115, i32 noundef %116, ptr noundef %25)
  store i32 %117, ptr %11, align 4
  %118 = load ptr, ptr %10, align 8
  %119 = load i32, ptr %11, align 4
  %120 = load ptr, ptr %12, align 8
  %121 = load ptr, ptr %13, align 8
  %122 = load ptr, ptr %15, align 8
  %123 = load i32, ptr @hf_pn_io_im_profile_id, align 4
  %124 = call i32 @dissect_dcerpc_uint16(ptr noundef %118, i32 noundef %119, ptr noundef %120, ptr noundef %121, ptr noundef %122, i32 noundef %123, ptr noundef %26)
  store i32 %124, ptr %11, align 4
  %125 = load ptr, ptr %10, align 8
  %126 = load i32, ptr %11, align 4
  %127 = load ptr, ptr %12, align 8
  %128 = load ptr, ptr %13, align 8
  %129 = load ptr, ptr %15, align 8
  %130 = load i32, ptr @hf_pn_io_im_profile_specific_type, align 4
  %131 = call i32 @dissect_dcerpc_uint16(ptr noundef %125, i32 noundef %126, ptr noundef %127, ptr noundef %128, ptr noundef %129, i32 noundef %130, ptr noundef %27)
  store i32 %131, ptr %11, align 4
  %132 = load ptr, ptr %10, align 8
  %133 = load i32, ptr %11, align 4
  %134 = load ptr, ptr %12, align 8
  %135 = load ptr, ptr %13, align 8
  %136 = load ptr, ptr %15, align 8
  %137 = load i32, ptr @hf_pn_io_im_version_major, align 4
  %138 = call i32 @dissect_dcerpc_uint8(ptr noundef %132, i32 noundef %133, ptr noundef %134, ptr noundef %135, ptr noundef %136, i32 noundef %137, ptr noundef %28)
  store i32 %138, ptr %11, align 4
  %139 = load ptr, ptr %10, align 8
  %140 = load i32, ptr %11, align 4
  %141 = load ptr, ptr %12, align 8
  %142 = load ptr, ptr %13, align 8
  %143 = load ptr, ptr %15, align 8
  %144 = load i32, ptr @hf_pn_io_im_version_minor, align 4
  %145 = call i32 @dissect_dcerpc_uint8(ptr noundef %139, i32 noundef %140, ptr noundef %141, ptr noundef %142, ptr noundef %143, i32 noundef %144, ptr noundef %29)
  store i32 %145, ptr %11, align 4
  %146 = load ptr, ptr %10, align 8
  %147 = load i32, ptr %11, align 4
  %148 = load ptr, ptr %12, align 8
  %149 = load ptr, ptr %13, align 8
  %150 = load ptr, ptr %15, align 8
  %151 = load i32, ptr @hf_pn_io_im_supported, align 4
  %152 = call i32 @dissect_dcerpc_uint16(ptr noundef %146, i32 noundef %147, ptr noundef %148, ptr noundef %149, ptr noundef %150, i32 noundef %151, ptr noundef %30)
  store i32 %152, ptr %11, align 4
  %153 = load i32, ptr %11, align 4
  store i32 %153, ptr %9, align 4
  br label %154

154:                                              ; preds = %47, %38
  %155 = load i32, ptr %9, align 4
  ret i32 %155
}