; Function Attrs: nounwind uwtable
define internal fastcc void @dissect_IandM0_block(ptr noundef %0, i32 noundef %1, ptr noundef %2, ptr noundef %3, ptr noundef %4, ptr noundef %5, i8 noundef zeroext %6, i8 noundef zeroext %7) unnamed_addr #0 {
  %9 = alloca i8, align 1
  %10 = alloca i8, align 1
  %11 = alloca i16, align 2
  %12 = alloca i8, align 1
  %13 = alloca i8, align 1
  %14 = alloca i8, align 1
  %15 = alloca i8, align 1
  %16 = alloca i16, align 2
  %17 = alloca i16, align 2
  %18 = alloca i16, align 2
  %19 = alloca i8, align 1
  %20 = alloca i8, align 1
  %21 = alloca i16, align 2
  %22 = icmp ne i8 %6, 1
  %23 = icmp ne i8 %7, 0
  %or.cond = or i1 %22, %23
  br i1 %or.cond, label %24, label %28

24:                                               ; preds = %8
  %25 = zext i8 %7 to i32
  %26 = zext i8 %6 to i32
  %27 = tail call ptr (ptr, ptr, ptr, ptr, ...) @expert_add_info_format(ptr noundef %2, ptr noundef %4, ptr noundef nonnull @ei_pn_io_block_version, ptr noundef nonnull @.str.1317, i32 noundef %26, i32 noundef %25) #11
  br label %61

28:                                               ; preds = %8
  %29 = load i32, ptr @hf_pn_io_vendor_id_high, align 4
  %30 = call i32 @dissect_dcerpc_uint8(ptr noundef %0, i32 noundef %1, ptr noundef %2, ptr noundef %3, ptr noundef %5, i32 noundef %29, ptr noundef nonnull %9) #11
  %31 = load i32, ptr @hf_pn_io_vendor_id_low, align 4
  %32 = call i32 @dissect_dcerpc_uint8(ptr noundef %0, i32 noundef %30, ptr noundef %2, ptr noundef %3, ptr noundef %5, i32 noundef %31, ptr noundef nonnull %10) #11
  %33 = load i32, ptr @hf_pn_io_order_id, align 4
  %34 = call ptr @proto_tree_add_item(ptr noundef %3, i32 noundef %33, ptr noundef %0, i32 noundef %32, i32 noundef 20, i32 noundef 0) #11
  %35 = add i32 %32, 20
  %36 = load i32, ptr @hf_pn_io_im_serial_number, align 4
  %37 = call ptr @proto_tree_add_item(ptr noundef %3, i32 noundef %36, ptr noundef %0, i32 noundef %35, i32 noundef 16, i32 noundef 0) #11
  %38 = add i32 %32, 36
  %39 = load i32, ptr @hf_pn_io_im_hardware_revision, align 4
  %40 = call i32 @dissect_dcerpc_uint16(ptr noundef %0, i32 noundef %38, ptr noundef %2, ptr noundef %3, ptr noundef %5, i32 noundef %39, ptr noundef nonnull %11) #11
  %41 = load i32, ptr @hf_pn_io_im_revision_prefix, align 4
  %42 = call i32 @dissect_dcerpc_char(ptr noundef %0, i32 noundef %40, ptr noundef %2, ptr noundef %3, ptr noundef %5, i32 noundef %41, ptr noundef nonnull %12) #11
  %43 = load i32, ptr @hf_pn_io_im_sw_revision_functional_enhancement, align 4
  %44 = call i32 @dissect_dcerpc_uint8(ptr noundef %0, i32 noundef %42, ptr noundef %2, ptr noundef %3, ptr noundef %5, i32 noundef %43, ptr noundef nonnull %13) #11
  %45 = load i32, ptr @hf_pn_io_im_revision_bugfix, align 4
  %46 = call i32 @dissect_dcerpc_uint8(ptr noundef %0, i32 noundef %44, ptr noundef %2, ptr noundef %3, ptr noundef %5, i32 noundef %45, ptr noundef nonnull %14) #11
  %47 = load i32, ptr @hf_pn_io_im_sw_revision_internal_change, align 4
  %48 = call i32 @dissect_dcerpc_uint8(ptr noundef %0, i32 noundef %46, ptr noundef %2, ptr noundef %3, ptr noundef %5, i32 noundef %47, ptr noundef nonnull %15) #11
  %49 = load i32, ptr @hf_pn_io_im_revision_counter, align 4
  %50 = call i32 @dissect_dcerpc_uint16(ptr noundef %0, i32 noundef %48, ptr noundef %2, ptr noundef %3, ptr noundef %5, i32 noundef %49, ptr noundef nonnull %16) #11
  %51 = load i32, ptr @hf_pn_io_im_profile_id, align 4
  %52 = call i32 @dissect_dcerpc_uint16(ptr noundef %0, i32 noundef %50, ptr noundef %2, ptr noundef %3, ptr noundef %5, i32 noundef %51, ptr noundef nonnull %17) #11
  %53 = load i32, ptr @hf_pn_io_im_profile_specific_type, align 4
  %54 = call i32 @dissect_dcerpc_uint16(ptr noundef %0, i32 noundef %52, ptr noundef %2, ptr noundef %3, ptr noundef %5, i32 noundef %53, ptr noundef nonnull %18) #11
  %55 = load i32, ptr @hf_pn_io_im_version_major, align 4
  %56 = call i32 @dissect_dcerpc_uint8(ptr noundef %0, i32 noundef %54, ptr noundef %2, ptr noundef %3, ptr noundef %5, i32 noundef %55, ptr noundef nonnull %19) #11
  %57 = load i32, ptr @hf_pn_io_im_version_minor, align 4
  %58 = call i32 @dissect_dcerpc_uint8(ptr noundef %0, i32 noundef %56, ptr noundef %2, ptr noundef %3, ptr noundef %5, i32 noundef %57, ptr noundef nonnull %20) #11
  %59 = load i32, ptr @hf_pn_io_im_supported, align 4
  %60 = call i32 @dissect_dcerpc_uint16(ptr noundef %0, i32 noundef %58, ptr noundef %2, ptr noundef %3, ptr noundef %5, i32 noundef %59, ptr noundef nonnull %21) #11
  br label %61

61:                                               ; preds = %28, %24
  ret void
}